; Function Attrs: mustprogress nounwind uwtable
define dso_local { i32, ptr } @_ZN4llvm3sys2fs6removeERKNS_5TwineEb(ptr noundef nonnull align 8 dereferenceable(34) %0, i1 noundef zeroext %1) local_unnamed_addr #0 {
  %3 = alloca %"class.llvm::SmallString.10", align 8
  %4 = alloca %struct.stat, align 8
  %5 = getelementptr inbounds i8, ptr %3, i64 24
  call void @_ZN4llvm15SmallVectorBaseImEC2EPvm(ptr noundef nonnull align 8 dereferenceable(24) %3, ptr noundef nonnull %5, i64 noundef 128) #30
  %6 = call { ptr, i64 } @_ZNK4llvm5Twine25toNullTerminatedStringRefERNS_15SmallVectorImplIcEE(ptr noundef nonnull align 8 dereferenceable(34) %0, ptr noundef nonnull align 8 dereferenceable(24) %3) #30
  %7 = extractvalue { ptr, i64 } %6, 0
  %8 = call i32 @lstat(ptr noundef %7, ptr noundef nonnull %4) #30
  %.not = icmp eq i32 %8, 0
  br i1 %.not, label %16, label %9

9:                                                ; preds = %2
  %10 = tail call ptr @__errno_location() #33
  %11 = load i32, ptr %10, align 4
  %.not3 = icmp eq i32 %11, 2
  %brmerge.not = and i1 %1, %.not3
  br i1 %brmerge.not, label %14, label %12

12:                                               ; preds = %9
  %13 = tail call noundef nonnull align 8 dereferenceable(8) ptr @_ZNSt3_V216generic_categoryEv() #33
  br label %32

14:                                               ; preds = %9
  %15 = tail call noundef nonnull align 8 dereferenceable(8) ptr @_ZNSt3_V215system_categoryEv() #33
  br label %32

16:                                               ; preds = %2
  %17 = getelementptr inbounds nuw i8, ptr %4, i64 24
  %18 = load i32, ptr %17, align 8
  %19 = trunc i32 %18 to i16
  %trunc = and i16 %19, -4096
  switch i16 %trunc, label %20 [
    i16 -32768, label %22
    i16 16384, label %22
    i16 -24576, label %22
  ]

20:                                               ; preds = %16
  %21 = tail call noundef nonnull align 8 dereferenceable(8) ptr @_ZNSt3_V216generic_categoryEv() #33
  br label %32

22:                                               ; preds = %16, %16, %16
  %23 = call i32 @remove(ptr noundef %7) #30
  %24 = icmp eq i32 %23, -1
  br i1 %24, label %25, label %30

25:                                               ; preds = %22
  %26 = tail call ptr @__errno_location() #33
  %27 = load i32, ptr %26, align 4
  %.not2 = icmp eq i32 %27, 2
  %brmerge6.not = and i1 %1, %.not2
  br i1 %brmerge6.not, label %30, label %28

28:                                               ; preds = %25
  %29 = tail call noundef nonnull align 8 dereferenceable(8) ptr @_ZNSt3_V216generic_categoryEv() #33
  br label %32

30:                                               ; preds = %25, %22
  %31 = tail call noundef nonnull align 8 dereferenceable(8) ptr @_ZNSt3_V215system_categoryEv() #33
  br label %32

32:                                               ; preds = %30, %28, %20, %14, %12
  %.sroa.011.0 = phi i32 [ 1, %20 ], [ %27, %28 ], [ 0, %30 ], [ %11, %12 ], [ 0, %14 ]
  %.sroa.6.0 = phi ptr [ %21, %20 ], [ %29, %28 ], [ %31, %30 ], [ %13, %12 ], [ %15, %14 ]
  %33 = call noundef i64 @_ZNK4llvm15SmallVectorBaseImE4sizeEv(ptr noundef nonnull align 8 dereferenceable(24) %3) #30
  %34 = load ptr, ptr %3, align 8
  %35 = icmp eq ptr %34, %5
  br i1 %35, label %_ZN4llvm11SmallStringILj128EED2Ev.exit, label %36

36:                                               ; preds = %32
  call void @free(ptr noundef %34) #30
  br label %_ZN4llvm11SmallStringILj128EED2Ev.exit

_ZN4llvm11SmallStringILj128EED2Ev.exit:           ; preds = %32, %36
  %.fca.0.insert = insertvalue { i32, ptr } poison, i32 %.sroa.011.0, 0
  %.fca.1.insert = insertvalue { i32, ptr } %.fca.0.insert, ptr %.sroa.6.0, 1
  ret { i32, ptr } %.fca.1.insert
}